target datalayout = "e-m:e-p270:32:32-p271:32:32-p272:64:64-i64:64-i128:128-f80:128-n8:16:32:64-S128"
target triple = "x86_64-pc-linux-gnu"

@timer_cb_count = internal global i32 0, align 4

; Function Attrs: nounwind uwtable
define internal i32 @timer_cb(ptr noundef %0, i32 noundef %1) #0 {
  %3 = alloca i32, align 4
  %4 = alloca ptr, align 8
  %5 = alloca i32, align 4
  store ptr %0, ptr %4, align 8, !tbaa !13
  store i32 %1, ptr %5, align 4, !tbaa !9
  %6 = load i32, ptr @timer_cb_count, align 4, !tbaa !9
  %7 = add i32 %6, 1
  store i32 %7, ptr @timer_cb_count, align 4, !tbaa !9
  %8 = load i32, ptr %5, align 4, !tbaa !9
  %9 = icmp eq i32 %8, 0
  br i1 %9, label %10, label %11

10:                                               ; preds = %2
  store i32 50000, ptr %3, align 4
  br label %14

11:                                               ; preds = %2
  %12 = load i32, ptr %5, align 4, !tbaa !9
  %13 = mul i32 2, %12
  store i32 %13, ptr %3, align 4
  br label %14

14:                                               ; preds = %11, %10
  %15 = load i32, ptr %3, align 4
  ret i32 %15
}