; Function Attrs: mustprogress nofree norecurse nosync nounwind willreturn memory(readwrite, argmem: none, inaccessiblemem: none) uwtable
define internal noundef range(i32 0, -1) i32 @timer_cb(ptr readnone captures(none) %0, i32 noundef %1) #4 {
  %3 = load i32, ptr @timer_cb_count, align 4, !tbaa !13
  %4 = add i32 %3, 1
  store i32 %4, ptr @timer_cb_count, align 4, !tbaa !13
  %5 = icmp eq i32 %1, 0
  %6 = shl i32 %1, 1
  %.0 = select i1 %5, i32 50000, i32 %6
  ret i32 %.0
}